target datalayout = "e-m:e-p270:32:32-p271:32:32-p272:64:64-i64:64-i128:128-f80:128-n8:16:32:64-S128"
target triple = "x86_64-unknown-linux-gnu"

%struct.EHCIState = type { %struct.USBBus, ptr, ptr, %struct.MemoryRegion, ptr, %struct.MemoryRegion, %struct.MemoryRegion, %struct.MemoryRegion, i32, i8, i16, i16, i16, i16, i32, [16 x i8], %union.anon.5, [6 x i32], ptr, ptr, i8, i32, i32, [6 x %struct.USBPort], [6 x ptr], i32, i32, %union.EHCIQueueHead, %union.EHCIQueueHead, i32, i32, %struct.USBPacket, %struct.QEMUSGList, i64, i32, i32, i8, ptr }
%struct.USBBus = type { %struct.BusState, ptr, i32, i32, i32, %union.anon, %union.anon.0, %union.anon.1 }
%struct.BusState = type { %struct.Object, ptr, ptr, ptr, i32, i8, i8, i32, %union.BusChildHead, %struct.BusStateEntry, %struct.ResettableState }
%struct.Object = type { ptr, ptr, ptr, i32, ptr }
%union.BusChildHead = type { %struct.QTailQLink }
%struct.QTailQLink = type { ptr, ptr }
%struct.BusStateEntry = type { ptr, ptr }
%struct.ResettableState = type { i32, i8, i8 }
%union.anon = type { %struct.QTailQLink }
%union.anon.0 = type { %struct.QTailQLink }
%union.anon.1 = type { %struct.QTailQLink }
%struct.MemoryRegion = type { %struct.Object, i8, i8, i8, i8, i8, i8, i8, i8, i8, i8, ptr, ptr, ptr, ptr, ptr, ptr, i32, i128, i64, ptr, i64, i8, i8, i8, i8, i8, ptr, i64, i32, %union.anon.2, %union.anon.3, %union.anon.4, ptr, i32, ptr, ptr, i8 }
%union.anon.2 = type { %struct.QTailQLink }
%union.anon.3 = type { %struct.QTailQLink }
%union.anon.4 = type { %struct.QTailQLink }
%union.anon.5 = type { [17 x i32] }
%struct.USBPort = type { ptr, i32, i32, [16 x i8], ptr, ptr, i32, %union.anon.6 }
%union.anon.6 = type { %struct.QTailQLink }
%union.EHCIQueueHead = type { %struct.QTailQLink }
%struct.USBPacket = type { i32, i64, ptr, i32, %struct.QEMUIOVector, i64, i8, i8, i32, i32, i32, ptr, %union.anon.10, %union.anon.11 }
%struct.QEMUIOVector = type { ptr, i32, %union.anon.7 }
%union.anon.7 = type { %struct.anon.8 }
%struct.anon.8 = type { i32, %struct.iovec }
%struct.iovec = type { ptr, i64 }
%union.anon.10 = type { %struct.QTailQLink }
%union.anon.11 = type { %struct.QTailQLink }
%struct.QEMUSGList = type { ptr, i32, i32, i64, ptr, ptr }
%struct.timeval = type { i64, i64 }

@trace_events_enabled_count = external global i32, align 4
@message_with_timestamp = external global i8, align 1
@qemu_loglevel = external global i32, align 4
@_TRACE_USB_EHCI_PORTSC_READ_DSTATE = external global i16, align 2
@.str.162 = private unnamed_addr constant [67 x i8] c"%d@%zu.%06zu:usb_ehci_portsc_read rd mmio 0x%04x [port %d] = 0x%x\0A\00", align 1
@.str.163 = private unnamed_addr constant [54 x i8] c"usb_ehci_portsc_read rd mmio 0x%04x [port %d] = 0x%x\0A\00", align 1

; Function Attrs: nounwind sspstrong uwtable
define internal zeroext i1 @qemu_loglevel_mask(i32 noundef %mask) #0 {
entry:
  %mask.addr = alloca i32, align 4
  store i32 %mask, ptr %mask.addr, align 4
  %0 = load i32, ptr @qemu_loglevel, align 4
  %1 = load i32, ptr %mask.addr, align 4
  %and = and i32 %0, %1
  %cmp = icmp ne i32 %and, 0
  ret i1 %cmp
}

; Function Attrs: nounwind sspstrong uwtable
define internal void @_nocheck__trace_usb_ehci_portsc_read(i32 noundef %addr, i32 noundef %port, i32 noundef %val) #0 {
entry:
  %addr.addr = alloca i32, align 4
  %port.addr = alloca i32, align 4
  %val.addr = alloca i32, align 4
  %_now = alloca %struct.timeval, align 8
  store i32 %addr, ptr %addr.addr, align 4
  store i32 %port, ptr %port.addr, align 4
  store i32 %val, ptr %val.addr, align 4
  %0 = load i32, ptr @trace_events_enabled_count, align 4
  %tobool = icmp ne i32 %0, 0
  %lnot = xor i1 %tobool, true
  %lnot1 = xor i1 %lnot, true
  %lnot.ext = zext i1 %lnot1 to i32
  %conv = sext i32 %lnot.ext to i64
  %tobool2 = icmp ne i64 %conv, 0
  br i1 %tobool2, label %land.lhs.true, label %if.end11

land.lhs.true:                                    ; preds = %entry
  %1 = load i16, ptr @_TRACE_USB_EHCI_PORTSC_READ_DSTATE, align 2
  %conv3 = zext i16 %1 to i32
  %tobool4 = icmp ne i32 %conv3, 0
  br i1 %tobool4, label %land.lhs.true5, label %if.end11

land.lhs.true5:                                   ; preds = %land.lhs.true
  %call = call zeroext i1 @qemu_loglevel_mask(i32 noundef 32768)
  br i1 %call, label %if.then, label %if.end11

if.then:                                          ; preds = %land.lhs.true5
  %2 = load i8, ptr @message_with_timestamp, align 1
  %tobool7 = trunc i8 %2 to i1
  br i1 %tobool7, label %if.then8, label %if.else

if.then8:                                         ; preds = %if.then
  %call9 = call i32 @gettimeofday(ptr noundef %_now, ptr noundef null) #10
  %call10 = call i32 @qemu_get_thread_id()
  %tv_sec = getelementptr inbounds %struct.timeval, ptr %_now, i32 0, i32 0
  %3 = load i64, ptr %tv_sec, align 8
  %tv_usec = getelementptr inbounds %struct.timeval, ptr %_now, i32 0, i32 1
  %4 = load i64, ptr %tv_usec, align 8
  %5 = load i32, ptr %addr.addr, align 4
  %6 = load i32, ptr %port.addr, align 4
  %7 = load i32, ptr %val.addr, align 4
  call void (ptr, ...) @qemu_log(ptr noundef @.str.162, i32 noundef %call10, i64 noundef %3, i64 noundef %4, i32 noundef %5, i32 noundef %6, i32 noundef %7)
  br label %if.end

if.else:                                          ; preds = %if.then
  %8 = load i32, ptr %addr.addr, align 4
  %9 = load i32, ptr %port.addr, align 4
  %10 = load i32, ptr %val.addr, align 4
  call void (ptr, ...) @qemu_log(ptr noundef @.str.163, i32 noundef %8, i32 noundef %9, i32 noundef %10)
  br label %if.end

if.end:                                           ; preds = %if.else, %if.then8
  br label %if.end11

if.end11:                                         ; preds = %if.end, %land.lhs.true5, %land.lhs.true, %entry
  ret void
}

; Function Attrs: nounwind sspstrong uwtable
define internal void @trace_usb_ehci_portsc_read(i32 noundef %addr, i32 noundef %port, i32 noundef %val) #0 {
entry:
  %addr.addr = alloca i32, align 4
  %port.addr = alloca i32, align 4
  %val.addr = alloca i32, align 4
  store i32 %addr, ptr %addr.addr, align 4
  store i32 %port, ptr %port.addr, align 4
  store i32 %val, ptr %val.addr, align 4
  %0 = load i32, ptr %addr.addr, align 4
  %1 = load i32, ptr %port.addr, align 4
  %2 = load i32, ptr %val.addr, align 4
  call void @_nocheck__trace_usb_ehci_portsc_read(i32 noundef %0, i32 noundef %1, i32 noundef %2)
  ret void
}

; Function Attrs: nounwind sspstrong uwtable
define internal i64 @ehci_port_read(ptr noundef %ptr, i64 noundef %addr, i32 noundef %size) #0 {
entry:
  %ptr.addr = alloca ptr, align 8
  %addr.addr = alloca i64, align 8
  %size.addr = alloca i32, align 4
  %s = alloca ptr, align 8
  %val = alloca i32, align 4
  store ptr %ptr, ptr %ptr.addr, align 8
  store i64 %addr, ptr %addr.addr, align 8
  store i32 %size, ptr %size.addr, align 4
  %0 = load ptr, ptr %ptr.addr, align 8
  store ptr %0, ptr %s, align 8
  %1 = load ptr, ptr %s, align 8
  %portsc = getelementptr inbounds %struct.EHCIState, ptr %1, i32 0, i32 17
  %2 = load i64, ptr %addr.addr, align 8
  %shr = lshr i64 %2, 2
  %arrayidx = getelementptr [6 x i32], ptr %portsc, i64 0, i64 %shr
  %3 = load i32, ptr %arrayidx, align 4
  store i32 %3, ptr %val, align 4
  %4 = load i64, ptr %addr.addr, align 8
  %5 = load ptr, ptr %s, align 8
  %portscbase = getelementptr inbounds %struct.EHCIState, ptr %5, i32 0, i32 12
  %6 = load i16, ptr %portscbase, align 2
  %conv = zext i16 %6 to i64
  %add = add i64 %4, %conv
  %conv1 = trunc i64 %add to i32
  %7 = load i64, ptr %addr.addr, align 8
  %shr2 = lshr i64 %7, 2
  %conv3 = trunc i64 %shr2 to i32
  %8 = load i32, ptr %val, align 4
  call void @trace_usb_ehci_portsc_read(i32 noundef %conv1, i32 noundef %conv3, i32 noundef %8)
  %9 = load i32, ptr %val, align 4
  %conv4 = zext i32 %9 to i64
  ret i64 %conv4
}