; Function Attrs: nounwind sspstrong uwtable
define internal range(i64 0, 4294967296) i64 @ehci_port_read(ptr noundef readonly captures(none) %ptr, i64 noundef %addr, i32 %size) #0 {
entry:
  %_now.i.i = alloca %struct.timeval, align 8
  %portsc = getelementptr inbounds nuw i8, ptr %ptr, i64 1416
  %shr = lshr i64 %addr, 2
  %arrayidx = getelementptr [6 x i32], ptr %portsc, i64 0, i64 %shr
  %0 = load i32, ptr %arrayidx, align 4
  %portscbase = getelementptr inbounds nuw i8, ptr %ptr, i64 1322
  %1 = load i16, ptr %portscbase, align 2
  %conv = zext i16 %1 to i64
  %add = add i64 %addr, %conv
  %conv1 = trunc i64 %add to i32
  %conv3 = trunc i64 %shr to i32
  call void @llvm.lifetime.start.p0(i64 16, ptr nonnull %_now.i.i)
  %2 = load i32, ptr @trace_events_enabled_count, align 4
  %tobool.i.i = icmp ne i32 %2, 0
  %3 = load i16, ptr @_TRACE_USB_EHCI_PORTSC_READ_DSTATE, align 2
  %tobool4.i.i = icmp ne i16 %3, 0
  %or.cond.i.i = select i1 %tobool.i.i, i1 %tobool4.i.i, i1 false
  br i1 %or.cond.i.i, label %land.lhs.true5.i.i, label %trace_usb_ehci_portsc_read.exit

land.lhs.true5.i.i:                               ; preds = %entry
  %4 = load i32, ptr @qemu_loglevel, align 4
  %and.i.i.i = and i32 %4, 32768
  %cmp.i.not.i.i = icmp eq i32 %and.i.i.i, 0
  br i1 %cmp.i.not.i.i, label %trace_usb_ehci_portsc_read.exit, label %if.then.i.i

if.then.i.i:                                      ; preds = %land.lhs.true5.i.i
  %5 = load i8, ptr @message_with_timestamp, align 1
  %tobool7.i.i = trunc i8 %5 to i1
  br i1 %tobool7.i.i, label %if.then8.i.i, label %if.else.i.i

if.then8.i.i:                                     ; preds = %if.then.i.i
  %call9.i.i = call i32 @gettimeofday(ptr noundef nonnull %_now.i.i, ptr noundef null) #17
  %call10.i.i = tail call i32 @qemu_get_thread_id() #17
  %6 = load i64, ptr %_now.i.i, align 8
  %tv_usec.i.i = getelementptr inbounds nuw i8, ptr %_now.i.i, i64 8
  %7 = load i64, ptr %tv_usec.i.i, align 8
  tail call void (ptr, ...) @qemu_log(ptr noundef nonnull @.str.162, i32 noundef %call10.i.i, i64 noundef %6, i64 noundef %7, i32 noundef %conv1, i32 noundef %conv3, i32 noundef %0) #17
  br label %trace_usb_ehci_portsc_read.exit

if.else.i.i:                                      ; preds = %if.then.i.i
  tail call void (ptr, ...) @qemu_log(ptr noundef nonnull @.str.163, i32 noundef %conv1, i32 noundef %conv3, i32 noundef %0) #17
  br label %trace_usb_ehci_portsc_read.exit

trace_usb_ehci_portsc_read.exit:                  ; preds = %entry, %land.lhs.true5.i.i, %if.then8.i.i, %if.else.i.i
  call void @llvm.lifetime.end.p0(i64 16, ptr nonnull %_now.i.i)
  %conv4 = zext i32 %0 to i64
  ret i64 %conv4
}